target datalayout = "e-m:e-p270:32:32-p271:32:32-p272:64:64-i64:64-i128:128-f80:128-n8:16:32:64-S128"
target triple = "x86_64-pc-linux-gnu"

%"class.std::__cxx11::basic_string" = type { %"struct.std::__cxx11::basic_string<char>::_Alloc_hider", i64, %union.anon }
%"struct.std::__cxx11::basic_string<char>::_Alloc_hider" = type { ptr }
%union.anon = type { i64, [8 x i8] }

@.str.1 = private unnamed_addr constant [107 x i8] c"generated/home/dtcxzyw/WorkSpace/Projects/compilers/llvm-opt-benchmark/bench/faiss/faiss/faiss/impl/io.cpp\00", align 1
@_ZTIN5faiss14FaissExceptionE = external constant ptr
@.str.12 = private unnamed_addr constant [19 x i8] c"Error: '%s' failed\00", align 1
@.str.15 = private unnamed_addr constant [17 x i8] c"sx.length() == 4\00", align 1
@__PRETTY_FUNCTION__._ZN5faiss6fourccERKNSt7__cxx1112basic_stringIcSt11char_traitsIcESaIcEEE = private unnamed_addr constant [44 x i8] c"uint32_t faiss::fourcc(const std::string &)\00", align 1

; Function Attrs: mustprogress uwtable
define noundef i32 @_ZN5faiss6fourccERKNSt7__cxx1112basic_stringIcSt11char_traitsIcESaIcEEE(ptr noundef nonnull align 8 dereferenceable(32) %0) #0 personality ptr @__gxx_personality_v0 {
  %2 = alloca ptr, align 8
  %3 = alloca %"class.std::__cxx11::basic_string", align 8
  %4 = alloca i32, align 4
  %5 = alloca ptr, align 8
  %6 = alloca i32, align 4
  %7 = alloca ptr, align 8
  store ptr %0, ptr %2, align 8
  br label %8

8:                                                ; preds = %1
  %9 = load ptr, ptr %2, align 8
  %10 = call noundef i64 @_ZNKSt7__cxx1112basic_stringIcSt11char_traitsIcESaIcEE6lengthEv(ptr noundef nonnull align 8 dereferenceable(32) %9) #12
  %11 = icmp eq i64 %10, 4
  br i1 %11, label %35, label %12

12:                                               ; preds = %8
  br label %13

13:                                               ; preds = %12
  call void @_ZNSt7__cxx1112basic_stringIcSt11char_traitsIcESaIcEEC1Ev(ptr noundef nonnull align 8 dereferenceable(32) %3) #12
  %14 = call i32 (ptr, i64, ptr, ...) @snprintf(ptr noundef null, i64 noundef 0, ptr noundef @.str.12, ptr noundef @.str.15) #12
  store i32 %14, ptr %4, align 4
  %15 = load i32, ptr %4, align 4
  %16 = add nsw i32 %15, 1
  %17 = sext i32 %16 to i64
  invoke void @_ZNSt7__cxx1112basic_stringIcSt11char_traitsIcESaIcEE6resizeEm(ptr noundef nonnull align 8 dereferenceable(32) %3, i64 noundef %17)
          to label %18 unwind label %25

18:                                               ; preds = %13
  %19 = invoke noundef nonnull align 1 dereferenceable(1) ptr @_ZNSt7__cxx1112basic_stringIcSt11char_traitsIcESaIcEEixEm(ptr noundef nonnull align 8 dereferenceable(32) %3, i64 noundef 0)
          to label %20 unwind label %25

20:                                               ; preds = %18
  %21 = call noundef i64 @_ZNKSt7__cxx1112basic_stringIcSt11char_traitsIcESaIcEE4sizeEv(ptr noundef nonnull align 8 dereferenceable(32) %3) #12
  %22 = call i32 (ptr, i64, ptr, ...) @snprintf(ptr noundef %19, i64 noundef %21, ptr noundef @.str.12, ptr noundef @.str.15) #12
  %23 = call ptr @__cxa_allocate_exception(i64 40) #12
  invoke void @_ZN5faiss14FaissExceptionC1ERKNSt7__cxx1112basic_stringIcSt11char_traitsIcESaIcEEEPKcSA_i(ptr noundef nonnull align 8 dereferenceable(40) %23, ptr noundef nonnull align 8 dereferenceable(32) %3, ptr noundef @__PRETTY_FUNCTION__._ZN5faiss6fourccERKNSt7__cxx1112basic_stringIcSt11char_traitsIcESaIcEEE, ptr noundef @.str.1, i32 noundef 236)
          to label %24 unwind label %29

24:                                               ; preds = %20
  invoke void @__cxa_throw(ptr %23, ptr @_ZTIN5faiss14FaissExceptionE, ptr @_ZN5faiss14FaissExceptionD2Ev) #13
          to label %66 unwind label %25

25:                                               ; preds = %24, %18, %13
  %26 = landingpad { ptr, i32 }
          cleanup
  %27 = extractvalue { ptr, i32 } %26, 0
  store ptr %27, ptr %5, align 8
  %28 = extractvalue { ptr, i32 } %26, 1
  store i32 %28, ptr %6, align 4
  br label %33

29:                                               ; preds = %20
  %30 = landingpad { ptr, i32 }
          cleanup
  %31 = extractvalue { ptr, i32 } %30, 0
  store ptr %31, ptr %5, align 8
  %32 = extractvalue { ptr, i32 } %30, 1
  store i32 %32, ptr %6, align 4
  call void @__cxa_free_exception(ptr %23) #12
  br label %33

33:                                               ; preds = %29, %25
  call void @_ZNSt7__cxx1112basic_stringIcSt11char_traitsIcESaIcEED1Ev(ptr noundef nonnull align 8 dereferenceable(32) %3) #12
  br label %61

34:                                               ; No predecessors!
  br label %35

35:                                               ; preds = %34, %8
  br label %36

36:                                               ; preds = %35
  %37 = load ptr, ptr %2, align 8
  %38 = call noundef ptr @_ZNKSt7__cxx1112basic_stringIcSt11char_traitsIcESaIcEE5c_strEv(ptr noundef nonnull align 8 dereferenceable(32) %37) #12
  store ptr %38, ptr %7, align 8
  %39 = load ptr, ptr %7, align 8
  %40 = getelementptr inbounds i8, ptr %39, i64 0
  %41 = load i8, ptr %40, align 1
  %42 = zext i8 %41 to i32
  %43 = load ptr, ptr %7, align 8
  %44 = getelementptr inbounds i8, ptr %43, i64 1
  %45 = load i8, ptr %44, align 1
  %46 = zext i8 %45 to i32
  %47 = shl i32 %46, 8
  %48 = or i32 %42, %47
  %49 = load ptr, ptr %7, align 8
  %50 = getelementptr inbounds i8, ptr %49, i64 2
  %51 = load i8, ptr %50, align 1
  %52 = zext i8 %51 to i32
  %53 = shl i32 %52, 16
  %54 = or i32 %48, %53
  %55 = load ptr, ptr %7, align 8
  %56 = getelementptr inbounds i8, ptr %55, i64 3
  %57 = load i8, ptr %56, align 1
  %58 = zext i8 %57 to i32
  %59 = shl i32 %58, 24
  %60 = or i32 %54, %59
  ret i32 %60

61:                                               ; preds = %33
  %62 = load ptr, ptr %5, align 8
  %63 = load i32, ptr %6, align 4
  %64 = insertvalue { ptr, i32 } poison, ptr %62, 0
  %65 = insertvalue { ptr, i32 } %64, i32 %63, 1
  resume { ptr, i32 } %65

66:                                               ; preds = %24
  unreachable
}