; Function Attrs: mustprogress uwtable
define noundef i32 @_ZN5faiss6fourccERKNSt7__cxx1112basic_stringIcSt11char_traitsIcESaIcEEE(ptr noundef nonnull align 8 dereferenceable(32) %0) local_unnamed_addr #2 personality ptr @__gxx_personality_v0 {
  %2 = alloca %"class.std::__cxx11::basic_string", align 8
  %3 = tail call noundef i64 @_ZNKSt7__cxx1112basic_stringIcSt11char_traitsIcESaIcEE6lengthEv(ptr noundef nonnull align 8 dereferenceable(32) %0) #21
  %4 = icmp eq i64 %3, 4
  br i1 %4, label %21, label %5

5:                                                ; preds = %1
  call void @_ZNSt7__cxx1112basic_stringIcSt11char_traitsIcESaIcEEC1Ev(ptr noundef nonnull align 8 dereferenceable(32) %2) #21
  %6 = call i32 (ptr, i64, ptr, ...) @snprintf(ptr noundef null, i64 noundef 0, ptr noundef nonnull @.str.12, ptr noundef nonnull @.str.15) #21
  %7 = add nsw i32 %6, 1
  %8 = sext i32 %7 to i64
  invoke void @_ZNSt7__cxx1112basic_stringIcSt11char_traitsIcESaIcEE6resizeEm(ptr noundef nonnull align 8 dereferenceable(32) %2, i64 noundef %8)
          to label %9 unwind label %16

9:                                                ; preds = %5
  %10 = invoke noundef nonnull align 1 dereferenceable(1) ptr @_ZNSt7__cxx1112basic_stringIcSt11char_traitsIcESaIcEEixEm(ptr noundef nonnull align 8 dereferenceable(32) %2, i64 noundef 0)
          to label %11 unwind label %16

11:                                               ; preds = %9
  %12 = call noundef i64 @_ZNKSt7__cxx1112basic_stringIcSt11char_traitsIcESaIcEE4sizeEv(ptr noundef nonnull align 8 dereferenceable(32) %2) #21
  %13 = call i32 (ptr, i64, ptr, ...) @snprintf(ptr noundef nonnull %10, i64 noundef %12, ptr noundef nonnull @.str.12, ptr noundef nonnull @.str.15) #21
  %14 = call ptr @__cxa_allocate_exception(i64 40) #21
  invoke void @_ZN5faiss14FaissExceptionC1ERKNSt7__cxx1112basic_stringIcSt11char_traitsIcESaIcEEEPKcSA_i(ptr noundef nonnull align 8 dereferenceable(40) %14, ptr noundef nonnull align 8 dereferenceable(32) %2, ptr noundef nonnull @__PRETTY_FUNCTION__._ZN5faiss6fourccERKNSt7__cxx1112basic_stringIcSt11char_traitsIcESaIcEEE, ptr noundef nonnull @.str.1, i32 noundef 236)
          to label %15 unwind label %18

15:                                               ; preds = %11
  invoke void @__cxa_throw(ptr nonnull %14, ptr nonnull @_ZTIN5faiss14FaissExceptionE, ptr nonnull @_ZN5faiss14FaissExceptionD2Ev) #22
          to label %24 unwind label %16

16:                                               ; preds = %15, %9, %5
  %17 = landingpad { ptr, i32 }
          cleanup
  br label %20

18:                                               ; preds = %11
  %19 = landingpad { ptr, i32 }
          cleanup
  call void @__cxa_free_exception(ptr %14) #21
  br label %20

20:                                               ; preds = %18, %16
  %.pn = phi { ptr, i32 } [ %17, %16 ], [ %19, %18 ]
  call void @_ZNSt7__cxx1112basic_stringIcSt11char_traitsIcESaIcEED1Ev(ptr noundef nonnull align 8 dereferenceable(32) %2) #21
  resume { ptr, i32 } %.pn

21:                                               ; preds = %1
  %22 = tail call noundef ptr @_ZNKSt7__cxx1112basic_stringIcSt11char_traitsIcESaIcEE5c_strEv(ptr noundef nonnull align 8 dereferenceable(32) %0) #21
  %23 = load i32, ptr %22, align 1
  ret i32 %23

24:                                               ; preds = %15
  unreachable
}